; Function Attrs: mustprogress nofree nounwind willreturn memory(write, argmem: none, inaccessiblemem: readwrite) uwtable
define noalias noundef ptr @ZSTDv06_createDCtx() local_unnamed_addr #17 {
  %1 = tail call noalias dereferenceable_or_null(152712) ptr @malloc(i64 noundef 152712) #29
  %2 = icmp eq ptr %1, null
  br i1 %2, label %9, label %3

3:                                                ; preds = %0
  %4 = getelementptr inbounds nuw i8, ptr %1, i64 21552
  store i64 5, ptr %4, align 8, !tbaa !69
  %5 = getelementptr inbounds nuw i8, ptr %1, i64 21588
  store i32 0, ptr %5, align 4, !tbaa !73
  %6 = getelementptr inbounds nuw i8, ptr %1, i64 21520
  %7 = getelementptr inbounds nuw i8, ptr %1, i64 5132
  tail call void @llvm.memset.p0.i64(ptr noundef nonnull align 8 dereferenceable(32) %6, i8 0, i64 32, i1 false)
  store i32 12, ptr %7, align 4, !tbaa !3
  %8 = getelementptr inbounds nuw i8, ptr %1, i64 21592
  store i32 0, ptr %8, align 8, !tbaa !74
  br label %9

9:                                                ; preds = %0, %3
  ret ptr %1
}